SF:/home/denis/Development/rust/photo_works/src/clapext/mod.rs
FN:17,_RNvMNtCs12GBdOJlRUx_11photo_works7clapextNtB2_16SubCommandHolder3new
FN:28,_RNvMNtCs12GBdOJlRUx_11photo_works7clapextNtB2_16SubCommandHolder14enrich_command
FN:35,_RNvMNtCs12GBdOJlRUx_11photo_works7clapextNtB2_16SubCommandHolder6handle
FN:23,_RINvMNtCs12GBdOJlRUx_11photo_works7clapextNtB3_16SubCommandHolder8registerNtNtNtB5_7command6import6ImportEB5_
FN:23,_RINvMNtCs12GBdOJlRUx_11photo_works7clapextNtB3_16SubCommandHolder8registerNtNtB5_5tests10TestSubAppEB5_
FN:23,_RINvMNtCs12GBdOJlRUx_11photo_works7clapextNtB3_16SubCommandHolder8registerNtNtNtB5_7command7catalog7CatalogEB5_
FN:23,_RINvMNtCs12GBdOJlRUx_11photo_works7clapextNtB3_16SubCommandHolder8registerNtNtNtB5_7command4init4InitEB5_
FNDA:4,_RNvMNtCs12GBdOJlRUx_11photo_works7clapextNtB2_16SubCommandHolder3new
FNDA:4,_RNvMNtCs12GBdOJlRUx_11photo_works7clapextNtB2_16SubCommandHolder14enrich_command
FNDA:2,_RNvMNtCs12GBdOJlRUx_11photo_works7clapextNtB2_16SubCommandHolder6handle
FNDA:1,_RINvMNtCs12GBdOJlRUx_11photo_works7clapextNtB3_16SubCommandHolder8registerNtNtNtB5_7command6import6ImportEB5_
FNDA:3,_RINvMNtCs12GBdOJlRUx_11photo_works7clapextNtB3_16SubCommandHolder8registerNtNtB5_5tests10TestSubAppEB5_
FNDA:1,_RINvMNtCs12GBdOJlRUx_11photo_works7clapextNtB3_16SubCommandHolder8registerNtNtNtB5_7command7catalog7CatalogEB5_
FNDA:1,_RINvMNtCs12GBdOJlRUx_11photo_works7clapextNtB3_16SubCommandHolder8registerNtNtNtB5_7command4init4InitEB5_
FNF:4
FNH:4
DA:17,4
DA:18,4
DA:19,4
DA:20,4
DA:21,4
DA:23,6
DA:24,6
DA:25,6
DA:26,6
DA:28,4
DA:29,6
DA:30,6
DA:31,6
DA:32,4
DA:33,4
DA:35,2
DA:36,2
DA:37,2
DA:38,2
DA:39,1
DA:40,1
DA:42,0
DA:44,1
BRF:0
BRH:0
LF:23
LH:22
end_of_record
SF:/home/denis/Development/rust/photo_works/src/command/catalog.rs
FN:61,_RNCNvNtNtCs12GBdOJlRUx_11photo_works7command7catalog7catalogs1_0B7_
FN:51,_RNCNvNtNtCs12GBdOJlRUx_11photo_works7command7catalog7catalog0B7_
FN:52,_RNCNvNtNtCs12GBdOJlRUx_11photo_works7command7catalog7catalogs_0B7_
FN:53,_RNCNvNtNtCs12GBdOJlRUx_11photo_works7command7catalog7catalogs0_0B7_
FN:116,_RNvNtNtNtCs12GBdOJlRUx_11photo_works7command7catalog5testss_61is_hidden_file_name_is_false_for_string_not_starting_with_dot
FN:96,_RNvNtNtNtCs12GBdOJlRUx_11photo_works7command7catalog5testss_45is_hidden_file_name_is_false_for_empty_string
FN:106,_RNvNtNtNtCs12GBdOJlRUx_11photo_works7command7catalog5testss_47is_hidden_file_name_is_false_for_single_non_dot
FN:111,_RNvNtNtNtCs12GBdOJlRUx_11photo_works7command7catalog5testss_40is_hidden_file_name_is_false_for_dot_dot
FN:121,_RNvNtNtNtCs12GBdOJlRUx_11photo_works7command7catalog5testss_56is_hidden_file_name_is_true_for_string_starting_with_dot
FN:101,_RNvNtNtNtCs12GBdOJlRUx_11photo_works7command7catalog5testss_36is_hidden_file_name_is_false_for_dot
FN:95,_RNCNvNtNtNtCs12GBdOJlRUx_11photo_works7command7catalog5tests45is_hidden_file_name_is_false_for_empty_string0B9_
FN:105,_RNCNvNtNtNtCs12GBdOJlRUx_11photo_works7command7catalog5tests47is_hidden_file_name_is_false_for_single_non_dot0B9_
FN:110,_RNCNvNtNtNtCs12GBdOJlRUx_11photo_works7command7catalog5tests40is_hidden_file_name_is_false_for_dot_dot0B9_
FN:120,_RNCNvNtNtNtCs12GBdOJlRUx_11photo_works7command7catalog5tests56is_hidden_file_name_is_true_for_string_starting_with_dot0B9_
FN:100,_RNCNvNtNtNtCs12GBdOJlRUx_11photo_works7command7catalog5tests36is_hidden_file_name_is_false_for_dot0B9_
FN:115,_RNCNvNtNtNtCs12GBdOJlRUx_11photo_works7command7catalog5tests61is_hidden_file_name_is_false_for_string_not_starting_with_dot0B9_
FN:48,_RNvNtNtCs12GBdOJlRUx_11photo_works7command7catalog7catalog
FN:66,_RNvNtNtCs12GBdOJlRUx_11photo_works7command7catalog23persist_catalog_entries
FN:84,_RNvNtNtCs12GBdOJlRUx_11photo_works7command7catalog19is_hidden_file_name
FN:18,_RNvXNtNtCs12GBdOJlRUx_11photo_works7command7catalogNtB2_7CatalogNtNtB6_7clapext14SubApplication4name
FN:29,_RNvXNtNtCs12GBdOJlRUx_11photo_works7command7catalogNtB2_7CatalogNtNtB6_7clapext14SubApplication6handle
FN:22,_RNvXNtNtCs12GBdOJlRUx_11photo_works7command7catalogNtB2_7CatalogNtNtB6_7clapext14SubApplication7command
FNDA:0,_RNCNvNtNtCs12GBdOJlRUx_11photo_works7command7catalog7catalogs1_0B7_
FNDA:0,_RNCNvNtNtCs12GBdOJlRUx_11photo_works7command7catalog7catalog0B7_
FNDA:0,_RNCNvNtNtCs12GBdOJlRUx_11photo_works7command7catalog7catalogs_0B7_
FNDA:0,_RNCNvNtNtCs12GBdOJlRUx_11photo_works7command7catalog7catalogs0_0B7_
FNDA:1,_RNvNtNtNtCs12GBdOJlRUx_11photo_works7command7catalog5testss_61is_hidden_file_name_is_false_for_string_not_starting_with_dot
FNDA:1,_RNvNtNtNtCs12GBdOJlRUx_11photo_works7command7catalog5testss_45is_hidden_file_name_is_false_for_empty_string
FNDA:1,_RNvNtNtNtCs12GBdOJlRUx_11photo_works7command7catalog5testss_47is_hidden_file_name_is_false_for_single_non_dot
FNDA:1,_RNvNtNtNtCs12GBdOJlRUx_11photo_works7command7catalog5testss_40is_hidden_file_name_is_false_for_dot_dot
FNDA:1,_RNvNtNtNtCs12GBdOJlRUx_11photo_works7command7catalog5testss_56is_hidden_file_name_is_true_for_string_starting_with_dot
FNDA:1,_RNvNtNtNtCs12GBdOJlRUx_11photo_works7command7catalog5testss_36is_hidden_file_name_is_false_for_dot
FNDA:1,_RNCNvNtNtNtCs12GBdOJlRUx_11photo_works7command7catalog5tests45is_hidden_file_name_is_false_for_empty_string0B9_
FNDA:1,_RNCNvNtNtNtCs12GBdOJlRUx_11photo_works7command7catalog5tests47is_hidden_file_name_is_false_for_single_non_dot0B9_
FNDA:1,_RNCNvNtNtNtCs12GBdOJlRUx_11photo_works7command7catalog5tests40is_hidden_file_name_is_false_for_dot_dot0B9_
FNDA:1,_RNCNvNtNtNtCs12GBdOJlRUx_11photo_works7command7catalog5tests56is_hidden_file_name_is_true_for_string_starting_with_dot0B9_
FNDA:1,_RNCNvNtNtNtCs12GBdOJlRUx_11photo_works7command7catalog5tests36is_hidden_file_name_is_false_for_dot0B9_
FNDA:1,_RNCNvNtNtNtCs12GBdOJlRUx_11photo_works7command7catalog5tests61is_hidden_file_name_is_false_for_string_not_starting_with_dot0B9_
FNDA:0,_RNvNtNtCs12GBdOJlRUx_11photo_works7command7catalog7catalog
FNDA:0,_RNvNtNtCs12GBdOJlRUx_11photo_works7command7catalog23persist_catalog_entries
FNDA:6,_RNvNtNtCs12GBdOJlRUx_11photo_works7command7catalog19is_hidden_file_name
FNDA:2,_RNvXNtNtCs12GBdOJlRUx_11photo_works7command7catalogNtB2_7CatalogNtNtB6_7clapext14SubApplication4name
FNDA:0,_RNvXNtNtCs12GBdOJlRUx_11photo_works7command7catalogNtB2_7CatalogNtNtB6_7clapext14SubApplication6handle
FNDA:1,_RNvXNtNtCs12GBdOJlRUx_11photo_works7command7catalogNtB2_7CatalogNtNtB6_7clapext14SubApplication7command
FNF:22
FNH:15
DA:18,2
DA:19,2
DA:20,2
DA:22,1
DA:23,1
DA:24,1
DA:25,1
DA:26,1
DA:27,1
DA:29,0
DA:30,0
DA:31,0
DA:32,0
DA:33,0
DA:34,0
DA:35,0
DA:36,0
DA:37,0
DA:39,0
DA:41,0
DA:42,0
DA:43,0
DA:45,0
DA:48,0
DA:49,0
DA:50,0
DA:51,0
DA:52,0
DA:53,0
DA:54,0
DA:55,0
DA:56,0
DA:57,0
DA:58,0
DA:59,0
DA:60,0
DA:61,0
DA:62,0
DA:63,0
DA:64,0
DA:66,0
DA:67,0
DA:68,0
DA:69,0
DA:70,0
DA:71,0
DA:72,0
DA:73,0
DA:74,0
DA:76,0
DA:77,0
DA:78,0
DA:81,0
DA:84,6
DA:85,6
DA:86,6
DA:87,6
DA:95,1
DA:96,1
DA:97,1
DA:98,1
DA:100,1
DA:101,1
DA:102,1
DA:103,1
DA:105,1
DA:106,1
DA:107,1
DA:108,1
DA:110,1
DA:111,1
DA:112,1
DA:113,1
DA:115,1
DA:116,1
DA:117,1
DA:118,1
DA:120,1
DA:121,1
DA:122,1
DA:123,1
BRF:0
BRH:0
LF:86
LH:37
end_of_record
SF:/home/denis/Development/rust/photo_works/src/command/import.rs
FN:106,_RNCNvNtNtCs12GBdOJlRUx_11photo_works7command6import12library_path0B7_
FN:62,_RNCNCNvNtNtCs12GBdOJlRUx_11photo_works7command6import6import00B9_
FN:64,_RNCNvNtNtCs12GBdOJlRUx_11photo_works7command6import6imports_0B7_
FN:116,_RNCNvNtNtCs12GBdOJlRUx_11photo_works7command6import15unused_filename0B7_
FN:61,_RNCNvNtNtCs12GBdOJlRUx_11photo_works7command6import6import0B7_
FN:289,_RNvNtNtNtCs12GBdOJlRUx_11photo_works7command6import5testss_30copy_catalog_entry_copies_file
FN:340,_RNvNtNtNtCs12GBdOJlRUx_11photo_works7command6import5tests20given_at_target_path
FN:315,_RNvNtNtNtCs12GBdOJlRUx_11photo_works7command6import5testss_37library_path_is_an_error_when_no_exif
FN:346,_RNvNtNtNtCs12GBdOJlRUx_11photo_works7command6import5tests44given_a_path_for_an_image_with_original_date
FN:199,_RNvNtNtNtCs12GBdOJlRUx_11photo_works7command6import5testss_26read_exif_returns_an_error
FN:228,_RNvNtNtNtCs12GBdOJlRUx_11photo_works7command6import5testss_27original_date_returns_error
FN:308,_RNvNtNtNtCs12GBdOJlRUx_11photo_works7command6import5testss_46library_path_is_an_error_when_no_original_date
FN:332,_RNvNtNtNtCs12GBdOJlRUx_11photo_works7command6import5testss_59try_copy_catalog_entry_returns_err_when_path_already_exists
FN:217,_RNvNtNtNtCs12GBdOJlRUx_11photo_works7command6import5testss_55original_date_returns_the_original_naive_date_from_exif
FN:299,_RNvNtNtNtCs12GBdOJlRUx_11photo_works7command6import5testss_53copy_catalog_entry_returns_err_when_hashes_dont_match
FN:350,_RNvNtNtNtCs12GBdOJlRUx_11photo_works7command6import5tests47given_a_path_for_an_image_with_no_original_date
FN:206,_RNvNtNtNtCs12GBdOJlRUx_11photo_works7command6import5testss_36date_based_path_uses_slash_separator
FN:356,_RNvNtNtNtCs12GBdOJlRUx_11photo_works7command6import5tests30given_a_path_for_non_exif_file
FN:322,_RNvNtNtNtCs12GBdOJlRUx_11photo_works7command6import5testss_34try_copy_catalog_entry_copies_file
FN:147,_RNvNtNtCs12GBdOJlRUx_11photo_works7command6import15date_based_path
FN:158,_RNvNtNtCs12GBdOJlRUx_11photo_works7command6import13original_date
FN:27,_RNvXNtNtCs12GBdOJlRUx_11photo_works7command6importNtB2_6ImportNtNtB6_7clapext14SubApplication4name
FN:112,_RNvNtNtCs12GBdOJlRUx_11photo_works7command6import15unused_filename
FN:31,_RNvXNtNtCs12GBdOJlRUx_11photo_works7command6importNtB2_6ImportNtNtB6_7clapext14SubApplication7command
FN:75,_RNvNtNtCs12GBdOJlRUx_11photo_works7command6import23persist_library_entries
FN:38,_RNvXNtNtCs12GBdOJlRUx_11photo_works7command6importNtB2_6ImportNtNtB6_7clapext14SubApplication6handle
FN:172,_RNvNtNtCs12GBdOJlRUx_11photo_works7command6import9read_exif
FN:124,_RNvNtNtCs12GBdOJlRUx_11photo_works7command6import15build_file_name
FN:92,_RNvNtNtCs12GBdOJlRUx_11photo_works7command6import22try_copy_catalog_entry
FN:58,_RNvNtNtCs12GBdOJlRUx_11photo_works7command6import6import
FN:102,_RNvNtNtCs12GBdOJlRUx_11photo_works7command6import12library_path
FN:131,_RNvNtNtCs12GBdOJlRUx_11photo_works7command6import18copy_catalog_entry
FN:314,_RNCNvNtNtNtCs12GBdOJlRUx_11photo_works7command6import5tests37library_path_is_an_error_when_no_exif0B9_
FN:227,_RNCNvNtNtNtCs12GBdOJlRUx_11photo_works7command6import5tests27original_date_returns_error0B9_
FN:307,_RNCNvNtNtNtCs12GBdOJlRUx_11photo_works7command6import5tests46library_path_is_an_error_when_no_original_date0B9_
FN:331,_RNCNvNtNtNtCs12GBdOJlRUx_11photo_works7command6import5tests59try_copy_catalog_entry_returns_err_when_path_already_exists0B9_
FN:216,_RNCNvNtNtNtCs12GBdOJlRUx_11photo_works7command6import5tests55original_date_returns_the_original_naive_date_from_exif0B9_
FN:298,_RNCNvNtNtNtCs12GBdOJlRUx_11photo_works7command6import5tests53copy_catalog_entry_returns_err_when_hashes_dont_match0B9_
FN:321,_RNCNvNtNtNtCs12GBdOJlRUx_11photo_works7command6import5tests34try_copy_catalog_entry_copies_file0B9_
FN:205,_RNCNvNtNtNtCs12GBdOJlRUx_11photo_works7command6import5tests36date_based_path_uses_slash_separator0B9_
FN:253,_RNCNvNtNtNtCs12GBdOJlRUx_11photo_works7command6import5tests52library_path_is_filename_is_changed_when_conflicting0B9_
FN:235,_RNCNvNtNtNtCs12GBdOJlRUx_11photo_works7command6import5tests51library_path_is_from_the_original_date_of_the_image0B9_
FN:198,_RNCNvNtNtNtCs12GBdOJlRUx_11photo_works7command6import5tests26read_exif_returns_an_error0B9_
FN:237,_RNCNvNtNtNtCs12GBdOJlRUx_11photo_works7command6import5testss_51library_path_is_from_the_original_date_of_the_image0B9_
FN:255,_RNCNvNtNtNtCs12GBdOJlRUx_11photo_works7command6import5testss_52library_path_is_filename_is_changed_when_conflicting0B9_
FN:288,_RNCNvNtNtNtCs12GBdOJlRUx_11photo_works7command6import5tests30copy_catalog_entry_copies_file0B9_
FNDA:1,_RNCNvNtNtCs12GBdOJlRUx_11photo_works7command6import12library_path0B7_
FNDA:0,_RNCNCNvNtNtCs12GBdOJlRUx_11photo_works7command6import6import00B9_
FNDA:0,_RNCNvNtNtCs12GBdOJlRUx_11photo_works7command6import6imports_0B7_
FNDA:1,_RNCNvNtNtCs12GBdOJlRUx_11photo_works7command6import15unused_filename0B7_
FNDA:0,_RNCNvNtNtCs12GBdOJlRUx_11photo_works7command6import6import0B7_
FNDA:1,_RNvNtNtNtCs12GBdOJlRUx_11photo_works7command6import5testss_30copy_catalog_entry_copies_file
FNDA:3,_RNvNtNtNtCs12GBdOJlRUx_11photo_works7command6import5tests20given_at_target_path
FNDA:1,_RNvNtNtNtCs12GBdOJlRUx_11photo_works7command6import5testss_37library_path_is_an_error_when_no_exif
FNDA:3,_RNvNtNtNtCs12GBdOJlRUx_11photo_works7command6import5tests44given_a_path_for_an_image_with_original_date
FNDA:1,_RNvNtNtNtCs12GBdOJlRUx_11photo_works7command6import5testss_26read_exif_returns_an_error
FNDA:1,_RNvNtNtNtCs12GBdOJlRUx_11photo_works7command6import5testss_27original_date_returns_error
FNDA:1,_RNvNtNtNtCs12GBdOJlRUx_11photo_works7command6import5testss_46library_path_is_an_error_when_no_original_date
FNDA:1,_RNvNtNtNtCs12GBdOJlRUx_11photo_works7command6import5testss_59try_copy_catalog_entry_returns_err_when_path_already_exists
FNDA:1,_RNvNtNtNtCs12GBdOJlRUx_11photo_works7command6import5testss_55original_date_returns_the_original_naive_date_from_exif
FNDA:1,_RNvNtNtNtCs12GBdOJlRUx_11photo_works7command6import5testss_53copy_catalog_entry_returns_err_when_hashes_dont_match
FNDA:2,_RNvNtNtNtCs12GBdOJlRUx_11photo_works7command6import5tests47given_a_path_for_an_image_with_no_original_date
FNDA:1,_RNvNtNtNtCs12GBdOJlRUx_11photo_works7command6import5testss_36date_based_path_uses_slash_separator
FNDA:2,_RNvNtNtNtCs12GBdOJlRUx_11photo_works7command6import5tests30given_a_path_for_non_exif_file
FNDA:1,_RNvNtNtNtCs12GBdOJlRUx_11photo_works7command6import5testss_34try_copy_catalog_entry_copies_file
FNDA:3,_RNvNtNtCs12GBdOJlRUx_11photo_works7command6import15date_based_path
FNDA:3,_RNvNtNtCs12GBdOJlRUx_11photo_works7command6import13original_date
FNDA:2,_RNvXNtNtCs12GBdOJlRUx_11photo_works7command6importNtB2_6ImportNtNtB6_7clapext14SubApplication4name
FNDA:2,_RNvNtNtCs12GBdOJlRUx_11photo_works7command6import15unused_filename
FNDA:1,_RNvXNtNtCs12GBdOJlRUx_11photo_works7command6importNtB2_6ImportNtNtB6_7clapext14SubApplication7command
FNDA:0,_RNvNtNtCs12GBdOJlRUx_11photo_works7command6import23persist_library_entries
FNDA:0,_RNvXNtNtCs12GBdOJlRUx_11photo_works7command6importNtB2_6ImportNtNtB6_7clapext14SubApplication6handle
FNDA:7,_RNvNtNtCs12GBdOJlRUx_11photo_works7command6import9read_exif
FNDA:1,_RNvNtNtCs12GBdOJlRUx_11photo_works7command6import15build_file_name
FNDA:2,_RNvNtNtCs12GBdOJlRUx_11photo_works7command6import22try_copy_catalog_entry
FNDA:0,_RNvNtNtCs12GBdOJlRUx_11photo_works7command6import6import
FNDA:4,_RNvNtNtCs12GBdOJlRUx_11photo_works7command6import12library_path
FNDA:3,_RNvNtNtCs12GBdOJlRUx_11photo_works7command6import18copy_catalog_entry
FNDA:1,_RNCNvNtNtNtCs12GBdOJlRUx_11photo_works7command6import5tests37library_path_is_an_error_when_no_exif0B9_
FNDA:1,_RNCNvNtNtNtCs12GBdOJlRUx_11photo_works7command6import5tests27original_date_returns_error0B9_
FNDA:1,_RNCNvNtNtNtCs12GBdOJlRUx_11photo_works7command6import5tests46library_path_is_an_error_when_no_original_date0B9_
FNDA:1,_RNCNvNtNtNtCs12GBdOJlRUx_11photo_works7command6import5tests59try_copy_catalog_entry_returns_err_when_path_already_exists0B9_
FNDA:1,_RNCNvNtNtNtCs12GBdOJlRUx_11photo_works7command6import5tests55original_date_returns_the_original_naive_date_from_exif0B9_
FNDA:1,_RNCNvNtNtNtCs12GBdOJlRUx_11photo_works7command6import5tests53copy_catalog_entry_returns_err_when_hashes_dont_match0B9_
FNDA:1,_RNCNvNtNtNtCs12GBdOJlRUx_11photo_works7command6import5tests34try_copy_catalog_entry_copies_file0B9_
FNDA:1,_RNCNvNtNtNtCs12GBdOJlRUx_11photo_works7command6import5tests36date_based_path_uses_slash_separator0B9_
FNDA:1,_RNCNvNtNtNtCs12GBdOJlRUx_11photo_works7command6import5tests52library_path_is_filename_is_changed_when_conflicting0B9_
FNDA:1,_RNCNvNtNtNtCs12GBdOJlRUx_11photo_works7command6import5tests51library_path_is_from_the_original_date_of_the_image0B9_
FNDA:1,_RNCNvNtNtNtCs12GBdOJlRUx_11photo_works7command6import5tests26read_exif_returns_an_error0B9_
FNDA:1,_RNCNvNtNtNtCs12GBdOJlRUx_11photo_works7command6import5testss_51library_path_is_from_the_original_date_of_the_image0B9_
FNDA:1,_RNCNvNtNtNtCs12GBdOJlRUx_11photo_works7command6import5testss_52library_path_is_filename_is_changed_when_conflicting0B9_
FNDA:1,_RNCNvNtNtNtCs12GBdOJlRUx_11photo_works7command6import5tests30copy_catalog_entry_copies_file0B9_
FNF:46
FNH:40
DA:27,2
DA:28,2
DA:29,2
DA:31,1
DA:32,1
DA:33,1
DA:34,1
DA:35,1
DA:36,1
DA:38,0
DA:39,0
DA:40,0
DA:41,0
DA:42,0
DA:43,0
DA:44,0
DA:46,0
DA:47,0
DA:48,0
DA:49,0
DA:51,0
DA:52,0
DA:53,0
DA:55,0
DA:58,0
DA:59,0
DA:60,0
DA:61,0
DA:62,0
DA:63,0
DA:64,0
DA:65,0
DA:66,0
DA:67,0
DA:68,0
DA:70,0
DA:71,0
DA:72,0
DA:73,0
DA:75,0
DA:76,0
DA:77,0
DA:78,0
DA:79,0
DA:80,0
DA:81,0
DA:82,0
DA:83,0
DA:85,0
DA:86,0
DA:87,0
DA:88,0
DA:90,0
DA:92,2
DA:93,2
DA:94,2
DA:95,2
DA:96,1
DA:98,1
DA:100,2
DA:102,4
DA:103,4
DA:104,3
DA:105,3
DA:106,3
DA:107,2
DA:108,2
DA:109,2
DA:110,4
DA:112,2
DA:113,2
DA:114,2
DA:115,2
DA:116,2
DA:117,3
DA:118,1
DA:119,1
DA:120,1
DA:121,2
DA:122,2
DA:124,1
DA:125,1
DA:126,1
DA:127,1
DA:128,1
DA:131,3
DA:132,3
DA:133,0
DA:134,3
DA:135,3
DA:136,3
DA:137,1
DA:138,1
DA:139,1
DA:140,1
DA:141,1
DA:143,2
DA:145,3
DA:147,3
DA:148,3
DA:149,3
DA:150,3
DA:151,3
DA:152,3
DA:153,3
DA:154,3
DA:155,3
DA:158,5
DA:159,3
DA:160,3
DA:161,3
DA:162,3
DA:163,3
DA:164,3
DA:165,3
DA:166,3
DA:168,2
DA:170,5
DA:172,7
DA:173,7
DA:174,7
DA:175,7
DA:176,7
DA:177,7
DA:178,7
DA:179,7
DA:198,1
DA:199,1
DA:200,1
DA:202,1
DA:203,1
DA:205,1
DA:206,1
DA:207,1
DA:208,1
DA:209,1
DA:210,1
DA:211,1
DA:212,1
DA:213,1
DA:214,1
DA:216,1
DA:217,1
DA:218,1
DA:219,1
DA:220,1
DA:221,1
DA:222,1
DA:223,1
DA:224,1
DA:225,1
DA:227,1
DA:228,1
DA:229,1
DA:230,1
DA:231,1
DA:232,1
DA:233,1
DA:235,1
DA:237,1
DA:238,1
DA:239,1
DA:240,1
DA:241,1
DA:242,1
DA:243,1
DA:244,1
DA:245,1
DA:246,1
DA:247,1
DA:248,1
DA:249,1
DA:250,1
DA:253,1
DA:255,1
DA:256,1
DA:257,1
DA:258,1
DA:259,1
DA:260,1
DA:261,1
DA:262,1
DA:263,1
DA:264,1
DA:265,1
DA:266,1
DA:267,1
DA:268,1
DA:269,1
DA:270,1
DA:271,1
DA:272,1
DA:273,1
DA:274,1
DA:275,1
DA:276,1
DA:277,1
DA:278,1
DA:279,1
DA:280,1
DA:281,1
DA:282,1
DA:283,1
DA:284,1
DA:285,1
DA:288,1
DA:289,1
DA:290,1
DA:291,1
DA:292,1
DA:293,1
DA:294,1
DA:295,1
DA:296,1
DA:298,1
DA:299,1
DA:300,1
DA:301,1
DA:302,1
DA:304,1
DA:305,1
DA:307,1
DA:308,1
DA:309,1
DA:311,1
DA:312,1
DA:314,1
DA:315,1
DA:316,1
DA:318,1
DA:319,1
DA:321,1
DA:322,1
DA:323,1
DA:324,1
DA:325,1
DA:326,1
DA:327,1
DA:328,1
DA:329,1
DA:331,1
DA:332,1
DA:333,1
DA:334,1
DA:335,1
DA:337,1
DA:338,1
DA:340,3
DA:341,3
DA:342,3
DA:343,3
DA:344,3
DA:346,3
DA:347,3
DA:348,3
DA:350,2
DA:351,2
DA:352,2
DA:353,2
DA:354,2
DA:356,2
DA:357,2
DA:358,2
BRF:0
BRH:0
LF:270
LH:220
end_of_record
SF:/home/denis/Development/rust/photo_works/src/command/init.rs
FN:24,_RNvXNtNtCs12GBdOJlRUx_11photo_works7command4initNtB2_4InitNtNtB6_7clapext14SubApplication6handle
FN:35,_RNvNtNtCs12GBdOJlRUx_11photo_works7command4init4init
FN:13,_RNvXNtNtCs12GBdOJlRUx_11photo_works7command4initNtB2_4InitNtNtB6_7clapext14SubApplication4name
FN:17,_RNvXNtNtCs12GBdOJlRUx_11photo_works7command4initNtB2_4InitNtNtB6_7clapext14SubApplication7command
FN:55,_RNCNvNtNtNtCs12GBdOJlRUx_11photo_works7command4init5tests12name_is_init0B9_
FN:65,_RNCNvNtNtNtCs12GBdOJlRUx_11photo_works7command4init5testss_17path_is_mandatory0B9_
FN:50,_RNCNvNtNtNtCs12GBdOJlRUx_11photo_works7command4init5tests21command_is_consistent0B9_
FN:60,_RNCNvNtNtNtCs12GBdOJlRUx_11photo_works7command4init5tests17path_is_mandatory0B9_
FN:51,_RNvNtNtNtCs12GBdOJlRUx_11photo_works7command4init5testss_21command_is_consistent
FN:56,_RNvNtNtNtCs12GBdOJlRUx_11photo_works7command4init5testss_12name_is_init
FN:61,_RNvNtNtNtCs12GBdOJlRUx_11photo_works7command4init5testss_17path_is_mandatory
FNDA:0,_RNvXNtNtCs12GBdOJlRUx_11photo_works7command4initNtB2_4InitNtNtB6_7clapext14SubApplication6handle
FNDA:0,_RNvNtNtCs12GBdOJlRUx_11photo_works7command4init4init
FNDA:5,_RNvXNtNtCs12GBdOJlRUx_11photo_works7command4initNtB2_4InitNtNtB6_7clapext14SubApplication4name
FNDA:3,_RNvXNtNtCs12GBdOJlRUx_11photo_works7command4initNtB2_4InitNtNtB6_7clapext14SubApplication7command
FNDA:1,_RNCNvNtNtNtCs12GBdOJlRUx_11photo_works7command4init5tests12name_is_init0B9_
FNDA:1,_RNCNvNtNtNtCs12GBdOJlRUx_11photo_works7command4init5testss_17path_is_mandatory0B9_
FNDA:1,_RNCNvNtNtNtCs12GBdOJlRUx_11photo_works7command4init5tests21command_is_consistent0B9_
FNDA:1,_RNCNvNtNtNtCs12GBdOJlRUx_11photo_works7command4init5tests17path_is_mandatory0B9_
FNDA:1,_RNvNtNtNtCs12GBdOJlRUx_11photo_works7command4init5testss_21command_is_consistent
FNDA:1,_RNvNtNtNtCs12GBdOJlRUx_11photo_works7command4init5testss_12name_is_init
FNDA:1,_RNvNtNtNtCs12GBdOJlRUx_11photo_works7command4init5testss_17path_is_mandatory
FNF:11
FNH:9
DA:13,5
DA:14,5
DA:15,5
DA:17,3
DA:18,3
DA:19,3
DA:20,3
DA:21,3
DA:22,3
DA:24,0
DA:25,0
DA:26,0
DA:27,0
DA:28,0
DA:29,0
DA:31,0
DA:32,0
DA:35,0
DA:36,0
DA:37,0
DA:38,0
DA:39,0
DA:40,0
DA:41,0
DA:42,0
DA:50,1
DA:51,1
DA:52,1
DA:53,1
DA:55,1
DA:56,1
DA:57,1
DA:58,1
DA:60,1
DA:61,1
DA:62,1
DA:63,1
DA:64,1
DA:65,1
DA:66,1
DA:67,1
DA:68,1
DA:69,1
BRF:0
BRH:0
LF:44
LH:28
end_of_record
SF:/home/denis/Development/rust/photo_works/src/database/catalog.rs
FN:122,_RNCNvNtNtNtCs12GBdOJlRUx_11photo_works8database7catalog5tests46catalog_insert_all_returns_count_of_insertions0B9_
FN:246,_RNCNvNtNtNtCs12GBdOJlRUx_11photo_works8database7catalog5tests58select_from_catalog_does_not_return_duplicate_hash_entries0B9_
FN:189,_RNCNvNtNtNtCs12GBdOJlRUx_11photo_works8database7catalog5tests40try_from_creates_catalog_entry_from_path0B9_
FN:220,_RNCNvNtNtNtCs12GBdOJlRUx_11photo_works8database7catalog5tests54select_from_catalog_does_not_return_entries_in_library0B9_
FN:164,_RNCNvNtNtNtCs12GBdOJlRUx_11photo_works8database7catalog5tests57catalog_insert_all_results_in_error_when_one_is_duplicate0B9_
FN:202,_RNCNvNtNtNtCs12GBdOJlRUx_11photo_works8database7catalog5tests47select_from_catalog_returns_the_catalog_entries0B9_
FN:85,_RNCNvNtNtNtCs12GBdOJlRUx_11photo_works8database7catalog5tests16catalog_contains0B9_
FN:142,_RNCNvNtNtNtCs12GBdOJlRUx_11photo_works8database7catalog5tests49catalog_insert_all_inserts_into_the_catalog_table0B9_
FN:196,_RNCNvNtNtNtCs12GBdOJlRUx_11photo_works8database7catalog5tests48try_from_fails_to_create_catalog_entry_from_path0B9_
FN:66,_RNCNvNtNtCs12GBdOJlRUx_11photo_works8database7catalog19select_from_catalogs_0B7_
FN:56,_RNCNvNtNtCs12GBdOJlRUx_11photo_works8database7catalog19select_from_catalog0B7_
FN:23,_RNvMNtNtCs12GBdOJlRUx_11photo_works8database7catalogNtB2_12CatalogEntry4path
FN:8,_RNvXs1_NtNtCs12GBdOJlRUx_11photo_works8database7catalogNtB5_12CatalogEntryNtNtCs7L5q00ejtpZ_4core3cmp9PartialEq2eqB9_
FN:31,_RNvXs_NtNtCs12GBdOJlRUx_11photo_works8database7catalogNtB4_12CatalogEntryINtNtCs7L5q00ejtpZ_4core7convert7TryFromRNtNtCsa38RyOPu2rR_3std4path7PathBufE8try_from
FN:8,_RNvXs2_NtNtCs12GBdOJlRUx_11photo_works8database7catalogNtB5_12CatalogEntryNtNtCs7L5q00ejtpZ_4core3fmt5Debug3fmt
FN:15,_RNvMNtNtCs12GBdOJlRUx_11photo_works8database7catalogNtB2_12CatalogEntry3new
FN:38,_RNvNtNtCs12GBdOJlRUx_11photo_works8database7catalog18catalog_insert_all
FN:19,_RNvMNtNtCs12GBdOJlRUx_11photo_works8database7catalogNtB2_12CatalogEntry6sha256
FN:50,_RNvNtNtCs12GBdOJlRUx_11photo_works8database7catalog19select_from_catalog
FN:203,_RNvNtNtNtCs12GBdOJlRUx_11photo_works8database7catalog5testss_47select_from_catalog_returns_the_catalog_entries
FN:197,_RNvNtNtNtCs12GBdOJlRUx_11photo_works8database7catalog5testss_48try_from_fails_to_create_catalog_entry_from_path
FN:123,_RNvNtNtNtCs12GBdOJlRUx_11photo_works8database7catalog5testss_46catalog_insert_all_returns_count_of_insertions
FN:247,_RNvNtNtNtCs12GBdOJlRUx_11photo_works8database7catalog5testss_58select_from_catalog_does_not_return_duplicate_hash_entries
FN:190,_RNvNtNtNtCs12GBdOJlRUx_11photo_works8database7catalog5testss_40try_from_creates_catalog_entry_from_path
FN:221,_RNvNtNtNtCs12GBdOJlRUx_11photo_works8database7catalog5testss_54select_from_catalog_does_not_return_entries_in_library
FN:92,_RNvNtNtNtCs12GBdOJlRUx_11photo_works8database7catalog5tests10connection
FN:165,_RNvNtNtNtCs12GBdOJlRUx_11photo_works8database7catalog5testss_57catalog_insert_all_results_in_error_when_one_is_duplicate
FN:98,_RNvNtNtNtCs12GBdOJlRUx_11photo_works8database7catalog5tests22insert_catalog_entries
FN:104,_RNvNtNtNtCs12GBdOJlRUx_11photo_works8database7catalog5tests20insert_catalog_entry
FN:113,_RNvNtNtNtCs12GBdOJlRUx_11photo_works8database7catalog5tests20insert_library_entry
FN:81,_RNvNtNtNtCs12GBdOJlRUx_11photo_works8database7catalog5tests16catalog_contains
FN:143,_RNvNtNtNtCs12GBdOJlRUx_11photo_works8database7catalog5testss_49catalog_insert_all_inserts_into_the_catalog_table
FNDA:1,_RNCNvNtNtNtCs12GBdOJlRUx_11photo_works8database7catalog5tests46catalog_insert_all_returns_count_of_insertions0B9_
FNDA:1,_RNCNvNtNtNtCs12GBdOJlRUx_11photo_works8database7catalog5tests58select_from_catalog_does_not_return_duplicate_hash_entries0B9_
FNDA:1,_RNCNvNtNtNtCs12GBdOJlRUx_11photo_works8database7catalog5tests40try_from_creates_catalog_entry_from_path0B9_
FNDA:1,_RNCNvNtNtNtCs12GBdOJlRUx_11photo_works8database7catalog5tests54select_from_catalog_does_not_return_entries_in_library0B9_
FNDA:1,_RNCNvNtNtNtCs12GBdOJlRUx_11photo_works8database7catalog5tests57catalog_insert_all_results_in_error_when_one_is_duplicate0B9_
FNDA:1,_RNCNvNtNtNtCs12GBdOJlRUx_11photo_works8database7catalog5tests47select_from_catalog_returns_the_catalog_entries0B9_
FNDA:2,_RNCNvNtNtNtCs12GBdOJlRUx_11photo_works8database7catalog5tests16catalog_contains0B9_
FNDA:1,_RNCNvNtNtNtCs12GBdOJlRUx_11photo_works8database7catalog5tests49catalog_insert_all_inserts_into_the_catalog_table0B9_
FNDA:1,_RNCNvNtNtNtCs12GBdOJlRUx_11photo_works8database7catalog5tests48try_from_fails_to_create_catalog_entry_from_path0B9_
FNDA:0,_RNCNvNtNtCs12GBdOJlRUx_11photo_works8database7catalog19select_from_catalogs_0B7_
FNDA:4,_RNCNvNtNtCs12GBdOJlRUx_11photo_works8database7catalog19select_from_catalog0B7_
FNDA:0,_RNvMNtNtCs12GBdOJlRUx_11photo_works8database7catalogNtB2_12CatalogEntry4path
FNDA:3,_RNvXs1_NtNtCs12GBdOJlRUx_11photo_works8database7catalogNtB5_12CatalogEntryNtNtCs7L5q00ejtpZ_4core3cmp9PartialEq2eqB9_
FNDA:2,_RNvXs_NtNtCs12GBdOJlRUx_11photo_works8database7catalogNtB4_12CatalogEntryINtNtCs7L5q00ejtpZ_4core7convert7TryFromRNtNtCsa38RyOPu2rR_3std4path7PathBufE8try_from
FNDA:0,_RNvXs2_NtNtCs12GBdOJlRUx_11photo_works8database7catalogNtB5_12CatalogEntryNtNtCs7L5q00ejtpZ_4core3fmt5Debug3fmt
FNDA:1,_RNvMNtNtCs12GBdOJlRUx_11photo_works8database7catalogNtB2_12CatalogEntry3new
FNDA:3,_RNvNtNtCs12GBdOJlRUx_11photo_works8database7catalog18catalog_insert_all
FNDA:0,_RNvMNtNtCs12GBdOJlRUx_11photo_works8database7catalogNtB2_12CatalogEntry6sha256
FNDA:3,_RNvNtNtCs12GBdOJlRUx_11photo_works8database7catalog19select_from_catalog
FNDA:1,_RNvNtNtNtCs12GBdOJlRUx_11photo_works8database7catalog5testss_47select_from_catalog_returns_the_catalog_entries
FNDA:1,_RNvNtNtNtCs12GBdOJlRUx_11photo_works8database7catalog5testss_48try_from_fails_to_create_catalog_entry_from_path
FNDA:1,_RNvNtNtNtCs12GBdOJlRUx_11photo_works8database7catalog5testss_46catalog_insert_all_returns_count_of_insertions
FNDA:1,_RNvNtNtNtCs12GBdOJlRUx_11photo_works8database7catalog5testss_58select_from_catalog_does_not_return_duplicate_hash_entries
FNDA:1,_RNvNtNtNtCs12GBdOJlRUx_11photo_works8database7catalog5testss_40try_from_creates_catalog_entry_from_path
FNDA:1,_RNvNtNtNtCs12GBdOJlRUx_11photo_works8database7catalog5testss_54select_from_catalog_does_not_return_entries_in_library
FNDA:6,_RNvNtNtNtCs12GBdOJlRUx_11photo_works8database7catalog5tests10connection
FNDA:1,_RNvNtNtNtCs12GBdOJlRUx_11photo_works8database7catalog5testss_57catalog_insert_all_results_in_error_when_one_is_duplicate
FNDA:3,_RNvNtNtNtCs12GBdOJlRUx_11photo_works8database7catalog5tests22insert_catalog_entries
FNDA:6,_RNvNtNtNtCs12GBdOJlRUx_11photo_works8database7catalog5tests20insert_catalog_entry
FNDA:1,_RNvNtNtNtCs12GBdOJlRUx_11photo_works8database7catalog5tests20insert_library_entry
FNDA:3,_RNvNtNtNtCs12GBdOJlRUx_11photo_works8database7catalog5tests16catalog_contains
FNDA:1,_RNvNtNtNtCs12GBdOJlRUx_11photo_works8database7catalog5testss_49catalog_insert_all_inserts_into_the_catalog_table
FNF:32
FNH:28
DA:8,3
DA:15,1
DA:16,1
DA:17,1
DA:19,0
DA:20,0
DA:21,0
DA:23,0
DA:24,0
DA:25,0
DA:31,2
DA:32,2
DA:33,1
DA:34,1
DA:35,2
DA:38,3
DA:39,3
DA:40,3
DA:41,3
DA:42,3
DA:43,3
DA:44,7
DA:45,5
DA:47,2
DA:48,3
DA:50,3
DA:51,3
DA:52,3
DA:53,3
DA:54,3
DA:55,3
DA:56,4
DA:57,4
DA:58,4
DA:59,4
DA:61,4
DA:62,3
DA:63,3
DA:64,3
DA:65,3
DA:66,3
DA:67,3
DA:81,3
DA:82,3
DA:83,3
DA:84,3
DA:85,3
DA:86,3
DA:87,2
DA:88,1
DA:90,3
DA:92,6
DA:93,6
DA:94,6
DA:95,6
DA:96,6
DA:98,3
DA:99,9
DA:100,6
DA:101,6
DA:102,3
DA:104,6
DA:105,6
DA:106,6
DA:107,6
DA:108,6
DA:109,6
DA:110,6
DA:111,6
DA:113,1
DA:114,1
DA:115,1
DA:116,1
DA:117,1
DA:118,1
DA:119,1
DA:120,1
DA:122,1
DA:123,1
DA:124,1
DA:125,1
DA:126,1
DA:127,1
DA:128,1
DA:129,1
DA:130,1
DA:131,1
DA:132,1
DA:133,1
DA:134,1
DA:135,1
DA:136,1
DA:137,1
DA:138,1
DA:139,1
DA:140,1
DA:142,1
DA:143,1
DA:144,1
DA:145,1
DA:146,1
DA:147,1
DA:148,1
DA:149,1
DA:150,1
DA:151,1
DA:152,1
DA:153,1
DA:154,1
DA:155,1
DA:156,1
DA:157,1
DA:158,1
DA:160,1
DA:161,1
DA:162,1
DA:164,1
DA:165,1
DA:166,1
DA:167,1
DA:168,1
DA:169,1
DA:170,1
DA:171,1
DA:172,1
DA:173,1
DA:174,1
DA:175,1
DA:176,1
DA:177,1
DA:178,1
DA:179,1
DA:180,1
DA:181,1
DA:182,1
DA:183,1
DA:184,1
DA:185,1
DA:186,1
DA:187,1
DA:189,1
DA:190,1
DA:191,1
DA:192,1
DA:193,1
DA:194,1
DA:196,1
DA:197,1
DA:198,1
DA:199,1
DA:200,1
DA:202,1
DA:203,1
DA:204,1
DA:205,1
DA:206,1
DA:207,1
DA:208,1
DA:209,1
DA:210,1
DA:211,1
DA:212,1
DA:213,1
DA:214,1
DA:215,1
DA:216,1
DA:217,1
DA:218,1
DA:220,1
DA:221,1
DA:222,1
DA:223,1
DA:224,1
DA:225,1
DA:226,1
DA:227,1
DA:228,1
DA:229,1
DA:230,1
DA:231,1
DA:232,1
DA:233,1
DA:234,1
DA:235,1
DA:236,1
DA:237,1
DA:238,1
DA:239,1
DA:240,1
DA:241,1
DA:242,1
DA:243,1
DA:244,1
DA:246,1
DA:247,1
DA:248,1
DA:249,1
DA:250,1
DA:251,1
DA:252,1
DA:253,1
DA:254,1
DA:255,1
DA:256,1
DA:257,1
DA:258,1
DA:259,1
DA:260,1
DA:261,1
DA:262,1
BRF:0
BRH:0
LF:215
LH:207
end_of_record
SF:/home/denis/Development/rust/photo_works/src/database/common.rs
FN:33,_RNCNvNtNtNtCs12GBdOJlRUx_11photo_works8database6common5tests46sha256_digest_is_the_same_as_the_system_sha2560B9_
FN:10,_RNvNtNtCs12GBdOJlRUx_11photo_works8database6common13sha256_digest
FN:35,_RNvNtNtNtCs12GBdOJlRUx_11photo_works8database6common5testss_46sha256_digest_is_the_same_as_the_system_sha256
FNDA:1,_RNCNvNtNtNtCs12GBdOJlRUx_11photo_works8database6common5tests46sha256_digest_is_the_same_as_the_system_sha2560B9_
FNDA:14,_RNvNtNtCs12GBdOJlRUx_11photo_works8database6common13sha256_digest
FNDA:1,_RNvNtNtNtCs12GBdOJlRUx_11photo_works8database6common5testss_46sha256_digest_is_the_same_as_the_system_sha256
FNF:3
FNH:3
DA:10,14
DA:11,14
DA:12,14
DA:14,12
DA:15,14
DA:16,14
DA:18,104
DA:19,102
DA:20,12
DA:21,90
DA:22,90
DA:24,12
DA:25,12
DA:26,12
DA:27,14
DA:33,1
DA:35,1
DA:36,1
DA:37,1
DA:38,1
DA:39,1
DA:40,1
DA:41,1
DA:42,1
DA:43,1
DA:44,1
DA:45,1
DA:46,1
DA:47,1
DA:48,1
DA:49,1
DA:50,1
DA:51,1
DA:52,1
BRF:0
BRH:0
LF:34
LH:34
end_of_record
SF:/home/denis/Development/rust/photo_works/src/database/library.rs
FN:98,_RNCNvNtNtNtCs12GBdOJlRUx_11photo_works8database7library5tests49library_insert_all_inserts_into_the_library_table0B9_
FN:65,_RNCNvNtNtNtCs12GBdOJlRUx_11photo_works8database7library5tests16library_contains0B9_
FN:145,_RNCNvNtNtNtCs12GBdOJlRUx_11photo_works8database7library5tests40try_from_creates_library_entry_from_path0B9_
FN:120,_RNCNvNtNtNtCs12GBdOJlRUx_11photo_works8database7library5tests57library_insert_all_results_in_error_when_one_is_duplicate0B9_
FN:152,_RNCNvNtNtNtCs12GBdOJlRUx_11photo_works8database7library5tests48try_from_fails_to_create_library_entry_from_path0B9_
FN:78,_RNCNvNtNtNtCs12GBdOJlRUx_11photo_works8database7library5tests46library_insert_all_returns_count_of_insertions0B9_
FN:121,_RNvNtNtNtCs12GBdOJlRUx_11photo_works8database7library5testss_57library_insert_all_results_in_error_when_one_is_duplicate
FN:79,_RNvNtNtNtCs12GBdOJlRUx_11photo_works8database7library5testss_46library_insert_all_returns_count_of_insertions
FN:153,_RNvNtNtNtCs12GBdOJlRUx_11photo_works8database7library5testss_48try_from_fails_to_create_library_entry_from_path
FN:146,_RNvNtNtNtCs12GBdOJlRUx_11photo_works8database7library5testss_40try_from_creates_library_entry_from_path
FN:61,_RNvNtNtNtCs12GBdOJlRUx_11photo_works8database7library5tests16library_contains
FN:72,_RNvNtNtNtCs12GBdOJlRUx_11photo_works8database7library5tests10connection
FN:99,_RNvNtNtNtCs12GBdOJlRUx_11photo_works8database7library5testss_49library_insert_all_inserts_into_the_library_table
FN:30,_RNvXs_NtNtCs12GBdOJlRUx_11photo_works8database7libraryNtB4_12LibraryEntryINtNtCs7L5q00ejtpZ_4core7convert7TryFromRNtNtCsa38RyOPu2rR_3std4path7PathBufE8try_from
FN:14,_RNvMNtNtCs12GBdOJlRUx_11photo_works8database7libraryNtB2_12LibraryEntry3new
FN:37,_RNvNtNtCs12GBdOJlRUx_11photo_works8database7library18library_insert_all
FN:18,_RNvMNtNtCs12GBdOJlRUx_11photo_works8database7libraryNtB2_12LibraryEntry6sha256
FN:22,_RNvMNtNtCs12GBdOJlRUx_11photo_works8database7libraryNtB2_12LibraryEntry4path
FN:46,_RNCNvNtNtCs12GBdOJlRUx_11photo_works8database7library18library_insert_all0B7_
FNDA:1,_RNCNvNtNtNtCs12GBdOJlRUx_11photo_works8database7library5tests49library_insert_all_inserts_into_the_library_table0B9_
FNDA:2,_RNCNvNtNtNtCs12GBdOJlRUx_11photo_works8database7library5tests16library_contains0B9_
FNDA:1,_RNCNvNtNtNtCs12GBdOJlRUx_11photo_works8database7library5tests40try_from_creates_library_entry_from_path0B9_
FNDA:1,_RNCNvNtNtNtCs12GBdOJlRUx_11photo_works8database7library5tests57library_insert_all_results_in_error_when_one_is_duplicate0B9_
FNDA:1,_RNCNvNtNtNtCs12GBdOJlRUx_11photo_works8database7library5tests48try_from_fails_to_create_library_entry_from_path0B9_
FNDA:1,_RNCNvNtNtNtCs12GBdOJlRUx_11photo_works8database7library5tests46library_insert_all_returns_count_of_insertions0B9_
FNDA:1,_RNvNtNtNtCs12GBdOJlRUx_11photo_works8database7library5testss_57library_insert_all_results_in_error_when_one_is_duplicate
FNDA:1,_RNvNtNtNtCs12GBdOJlRUx_11photo_works8database7library5testss_46library_insert_all_returns_count_of_insertions
FNDA:1,_RNvNtNtNtCs12GBdOJlRUx_11photo_works8database7library5testss_48try_from_fails_to_create_library_entry_from_path
FNDA:1,_RNvNtNtNtCs12GBdOJlRUx_11photo_works8database7library5testss_40try_from_creates_library_entry_from_path
FNDA:3,_RNvNtNtNtCs12GBdOJlRUx_11photo_works8database7library5tests16library_contains
FNDA:3,_RNvNtNtNtCs12GBdOJlRUx_11photo_works8database7library5tests10connection
FNDA:1,_RNvNtNtNtCs12GBdOJlRUx_11photo_works8database7library5testss_49library_insert_all_inserts_into_the_library_table
FNDA:5,_RNvXs_NtNtCs12GBdOJlRUx_11photo_works8database7libraryNtB4_12LibraryEntryINtNtCs7L5q00ejtpZ_4core7convert7TryFromRNtNtCsa38RyOPu2rR_3std4path7PathBufE8try_from
FNDA:5,_RNvMNtNtCs12GBdOJlRUx_11photo_works8database7libraryNtB2_12LibraryEntry3new
FNDA:3,_RNvNtNtCs12GBdOJlRUx_11photo_works8database7library18library_insert_all
FNDA:4,_RNvMNtNtCs12GBdOJlRUx_11photo_works8database7libraryNtB2_12LibraryEntry6sha256
FNDA:2,_RNvMNtNtCs12GBdOJlRUx_11photo_works8database7libraryNtB2_12LibraryEntry4path
FNDA:1,_RNCNvNtNtCs12GBdOJlRUx_11photo_works8database7library18library_insert_all0B7_
FNF:19
FNH:19
DA:14,5
DA:15,5
DA:16,5
DA:18,4
DA:19,4
DA:20,4
DA:22,2
DA:23,2
DA:24,2
DA:30,5
DA:31,5
DA:32,4
DA:33,4
DA:34,5
DA:37,3
DA:38,3
DA:39,3
DA:40,3
DA:41,3
DA:42,3
DA:43,7
DA:44,5
DA:45,5
DA:46,5
DA:48,2
DA:49,3
DA:61,3
DA:62,3
DA:63,3
DA:64,3
DA:65,3
DA:66,3
DA:67,2
DA:68,1
DA:70,3
DA:72,3
DA:73,3
DA:74,3
DA:75,3
DA:76,3
DA:78,1
DA:79,1
DA:80,1
DA:81,1
DA:82,1
DA:83,1
DA:84,1
DA:85,1
DA:86,1
DA:87,1
DA:88,1
DA:89,1
DA:90,1
DA:91,1
DA:92,1
DA:93,1
DA:94,1
DA:95,1
DA:96,1
DA:98,1
DA:99,1
DA:100,1
DA:101,1
DA:102,1
DA:103,1
DA:104,1
DA:105,1
DA:106,1
DA:107,1
DA:108,1
DA:109,1
DA:110,1
DA:111,1
DA:112,1
DA:113,1
DA:114,1
DA:116,1
DA:117,1
DA:118,1
DA:120,1
DA:121,1
DA:122,1
DA:123,1
DA:124,1
DA:125,1
DA:126,1
DA:127,1
DA:128,1
DA:129,1
DA:130,1
DA:131,1
DA:132,1
DA:133,1
DA:134,1
DA:135,1
DA:136,1
DA:137,1
DA:138,1
DA:139,1
DA:140,1
DA:141,1
DA:142,1
DA:143,1
DA:145,1
DA:146,1
DA:147,1
DA:148,1
DA:149,1
DA:150,1
DA:152,1
DA:153,1
DA:154,1
DA:155,1
DA:156,1
BRF:0
BRH:0
LF:116
LH:116
end_of_record
SF:/home/denis/Development/rust/photo_works/src/database/mod.rs
FN:16,_RNvNtCs12GBdOJlRUx_11photo_works8database4open
FN:22,_RNvNtCs12GBdOJlRUx_11photo_works8database7migrate
FN:32,_RNvNtNtCs12GBdOJlRUx_11photo_works8database5tests12table_exists
FN:43,_RNvNtNtCs12GBdOJlRUx_11photo_works8database5testss_33migrate_creates_the_catalog_table
FN:50,_RNvNtNtCs12GBdOJlRUx_11photo_works8database5testss_33migrate_creates_the_library_table
FN:13,_RNvNtNtNtCs12GBdOJlRUx_11photo_works8database8embedded10migrations6runner
FN:42,_RNCNvNtNtCs12GBdOJlRUx_11photo_works8database5tests33migrate_creates_the_catalog_table0B7_
FN:49,_RNCNvNtNtCs12GBdOJlRUx_11photo_works8database5tests33migrate_creates_the_library_table0B7_
FNDA:0,_RNvNtCs12GBdOJlRUx_11photo_works8database4open
FNDA:11,_RNvNtCs12GBdOJlRUx_11photo_works8database7migrate
FNDA:2,_RNvNtNtCs12GBdOJlRUx_11photo_works8database5tests12table_exists
FNDA:1,_RNvNtNtCs12GBdOJlRUx_11photo_works8database5testss_33migrate_creates_the_catalog_table
FNDA:1,_RNvNtNtCs12GBdOJlRUx_11photo_works8database5testss_33migrate_creates_the_library_table
FNDA:11,_RNvNtNtNtCs12GBdOJlRUx_11photo_works8database8embedded10migrations6runner
FNDA:1,_RNCNvNtNtCs12GBdOJlRUx_11photo_works8database5tests33migrate_creates_the_catalog_table0B7_
FNDA:1,_RNCNvNtNtCs12GBdOJlRUx_11photo_works8database5tests33migrate_creates_the_library_table0B7_
FNF:8
FNH:7
DA:13,11
DA:16,0
DA:17,0
DA:18,0
DA:19,0
DA:20,0
DA:22,11
DA:23,11
DA:24,11
DA:32,2
DA:33,2
DA:34,2
DA:35,2
DA:36,2
DA:37,2
DA:38,2
DA:39,2
DA:40,2
DA:42,1
DA:43,1
DA:44,1
DA:45,1
DA:46,1
DA:47,1
DA:49,1
DA:50,1
DA:51,1
DA:52,1
DA:53,1
DA:54,1
BRF:0
BRH:0
LF:30
LH:25
end_of_record
SF:/home/denis/Development/rust/photo_works/src/main.rs
FN:54,_RNvCs12GBdOJlRUx_11photo_works4main
FN:73,_RNvNtCs12GBdOJlRUx_11photo_works5testss_38register_add_a_sub_application_command
FN:101,_RNvNtCs12GBdOJlRUx_11photo_works5testss_21command_is_consistent
FN:122,_RNvXNtCs12GBdOJlRUx_11photo_works5testsNtB2_10TestSubAppNtNtB4_7clapext14SubApplication4name
FN:126,_RNvXNtCs12GBdOJlRUx_11photo_works5testsNtB2_10TestSubAppNtNtB4_7clapext14SubApplication7command
FN:107,_RNvNtCs12GBdOJlRUx_11photo_works5tests15given_a_sub_app
FN:130,_RNvXNtCs12GBdOJlRUx_11photo_works5testsNtB2_10TestSubAppNtNtB4_7clapext14SubApplication6handle
FN:83,_RNvNtCs12GBdOJlRUx_11photo_works5testss_33run_invokes_the_subcommand_handle
FN:94,_RNvNtCs12GBdOJlRUx_11photo_works5testss_38panics_when_subcommand_cannot_be_found
FN:32,_RINvMCs12GBdOJlRUx_11photo_worksNtB3_10PhotoWorks8registerNtNtNtB3_7command7catalog7CatalogEB3_
FN:37,_RINvMCs12GBdOJlRUx_11photo_worksNtB3_10PhotoWorks3runINtNtCsjllP7bAX7YC_5alloc3vec3VecReEB1m_EB3_
FN:32,_RINvMCs12GBdOJlRUx_11photo_worksNtB3_10PhotoWorks8registerNtNtB3_5tests10TestSubAppEB3_
FN:32,_RINvMCs12GBdOJlRUx_11photo_worksNtB3_10PhotoWorks8registerNtNtNtB3_7command4init4InitEB3_
FN:32,_RINvMCs12GBdOJlRUx_11photo_worksNtB3_10PhotoWorks8registerNtNtNtB3_7command6import6ImportEB3_
FN:100,_RNCNvNtCs12GBdOJlRUx_11photo_works5tests21command_is_consistent0B5_
FN:82,_RNCNvNtCs12GBdOJlRUx_11photo_works5tests33run_invokes_the_subcommand_handle0B5_
FN:92,_RNCNvNtCs12GBdOJlRUx_11photo_works5tests38panics_when_subcommand_cannot_be_found0B5_
FN:72,_RNCNvNtCs12GBdOJlRUx_11photo_works5tests38register_add_a_sub_application_command0B5_
FN:17,_RNvMCs12GBdOJlRUx_11photo_worksNtB2_10PhotoWorks3new
FN:47,_RNvCs12GBdOJlRUx_11photo_works3app
FN:23,_RNvMCs12GBdOJlRUx_11photo_worksNtB2_10PhotoWorks7command
FNDA:0,_RNvCs12GBdOJlRUx_11photo_works4main
FNDA:1,_RNvNtCs12GBdOJlRUx_11photo_works5testss_38register_add_a_sub_application_command
FNDA:1,_RNvNtCs12GBdOJlRUx_11photo_works5testss_21command_is_consistent
FNDA:3,_RNvXNtCs12GBdOJlRUx_11photo_works5testsNtB2_10TestSubAppNtNtB4_7clapext14SubApplication4name
FNDA:3,_RNvXNtCs12GBdOJlRUx_11photo_works5testsNtB2_10TestSubAppNtNtB4_7clapext14SubApplication7command
FNDA:3,_RNvNtCs12GBdOJlRUx_11photo_works5tests15given_a_sub_app
FNDA:1,_RNvXNtCs12GBdOJlRUx_11photo_works5testsNtB2_10TestSubAppNtNtB4_7clapext14SubApplication6handle
FNDA:1,_RNvNtCs12GBdOJlRUx_11photo_works5testss_33run_invokes_the_subcommand_handle
FNDA:1,_RNvNtCs12GBdOJlRUx_11photo_works5testss_38panics_when_subcommand_cannot_be_found
FNDA:1,_RINvMCs12GBdOJlRUx_11photo_worksNtB3_10PhotoWorks8registerNtNtNtB3_7command7catalog7CatalogEB3_
FNDA:2,_RINvMCs12GBdOJlRUx_11photo_worksNtB3_10PhotoWorks3runINtNtCsjllP7bAX7YC_5alloc3vec3VecReEB1m_EB3_
FNDA:3,_RINvMCs12GBdOJlRUx_11photo_worksNtB3_10PhotoWorks8registerNtNtB3_5tests10TestSubAppEB3_
FNDA:1,_RINvMCs12GBdOJlRUx_11photo_worksNtB3_10PhotoWorks8registerNtNtNtB3_7command4init4InitEB3_
FNDA:1,_RINvMCs12GBdOJlRUx_11photo_worksNtB3_10PhotoWorks8registerNtNtNtB3_7command6import6ImportEB3_
FNDA:1,_RNCNvNtCs12GBdOJlRUx_11photo_works5tests21command_is_consistent0B5_
FNDA:1,_RNCNvNtCs12GBdOJlRUx_11photo_works5tests33run_invokes_the_subcommand_handle0B5_
FNDA:1,_RNCNvNtCs12GBdOJlRUx_11photo_works5tests38panics_when_subcommand_cannot_be_found0B5_
FNDA:1,_RNCNvNtCs12GBdOJlRUx_11photo_works5tests38register_add_a_sub_application_command0B5_
FNDA:4,_RNvMCs12GBdOJlRUx_11photo_worksNtB2_10PhotoWorks3new
FNDA:1,_RNvCs12GBdOJlRUx_11photo_works3app
FNDA:4,_RNvMCs12GBdOJlRUx_11photo_worksNtB2_10PhotoWorks7command
FNF:18
FNH:17
DA:17,4
DA:18,4
DA:19,4
DA:20,4
DA:21,4
DA:23,4
DA:24,4
DA:25,4
DA:26,4
DA:27,4
DA:28,4
DA:29,4
DA:30,4
DA:32,6
DA:33,6
DA:34,6
DA:35,6
DA:37,2
DA:38,2
DA:39,2
DA:40,2
DA:41,2
DA:42,2
DA:43,2
DA:44,2
DA:47,1
DA:48,1
DA:49,1
DA:50,1
DA:51,1
DA:52,1
DA:54,0
DA:55,0
DA:56,0
DA:57,0
DA:58,0
DA:72,1
DA:73,1
DA:74,1
DA:75,1
DA:76,1
DA:77,1
DA:78,1
DA:79,1
DA:80,1
DA:82,1
DA:83,1
DA:84,1
DA:85,1
DA:86,1
DA:87,1
DA:89,1
DA:90,1
DA:92,1
DA:94,1
DA:95,1
DA:96,1
DA:97,1
DA:98,1
DA:100,1
DA:101,1
DA:102,1
DA:103,1
DA:104,1
DA:105,1
DA:107,3
DA:108,3
DA:109,3
DA:110,3
DA:111,3
DA:112,3
DA:113,3
DA:114,3
DA:115,3
DA:122,3
DA:123,3
DA:124,3
DA:126,3
DA:127,3
DA:128,3
DA:130,1
DA:131,1
DA:132,1
DA:133,1
DA:134,1
BRF:0
BRH:0
LF:85
LH:80
end_of_record